target datalayout = "e-m:e-p270:32:32-p271:32:32-p272:64:64-i64:64-i128:128-f80:128-n8:16:32:64-S128"
target triple = "x86_64-pc-linux-gnu"

%"class.llvm::DebugLoc" = type { %"class.llvm::TypedTrackingMDRef" }
%"class.llvm::TypedTrackingMDRef" = type { %"class.llvm::TrackingMDRef" }
%"class.llvm::TrackingMDRef" = type { ptr }
%"struct.std::_Vector_base.396" = type { %"struct.std::_Vector_base<llvm::SwitchCG::CaseBlock, std::allocator<llvm::SwitchCG::CaseBlock>>::_Vector_impl" }
%"struct.std::_Vector_base<llvm::SwitchCG::CaseBlock, std::allocator<llvm::SwitchCG::CaseBlock>>::_Vector_impl" = type { %"struct.std::_Vector_base<llvm::SwitchCG::CaseBlock, std::allocator<llvm::SwitchCG::CaseBlock>>::_Vector_impl_data" }
%"struct.std::_Vector_base<llvm::SwitchCG::CaseBlock, std::allocator<llvm::SwitchCG::CaseBlock>>::_Vector_impl_data" = type { ptr, ptr, ptr }
%"class.llvm::Value" = type { i8, i8, i16, i32, ptr, ptr }
%"class.llvm::SDLoc" = type <{ %"class.llvm::DebugLoc", i32, [4 x i8] }>
%"class.llvm::BranchProbability" = type { i32 }
%"struct.llvm::SwitchCG::CaseBlock" = type <{ %union.anon.797, ptr, ptr, ptr, ptr, ptr, ptr, %"class.llvm::SDLoc", %"class.llvm::DebugLoc", %"class.llvm::BranchProbability", %"class.llvm::BranchProbability", i8, [7 x i8] }>
%union.anon.797 = type { %"struct.llvm::SwitchCG::CaseBlock::PredInfoPair" }
%"struct.llvm::SwitchCG::CaseBlock::PredInfoPair" = type { i32, i8 }

; Function Attrs: mustprogress nounwind uwtable
define linkonce_odr hidden noundef i32 @_ZNK4llvm5Value10getValueIDEv(ptr noundef nonnull align 8 dereferenceable(24) %0) #1 comdat align 2 {
  %2 = alloca ptr, align 8
  store ptr %0, ptr %2, align 8
  %3 = load ptr, ptr %2, align 8
  %4 = getelementptr inbounds nuw %"class.llvm::Value", ptr %3, i32 0, i32 0
  %5 = load i8, ptr %4, align 8
  %6 = zext i8 %5 to i32
  ret i32 %6
}

; Function Attrs: mustprogress nounwind uwtable
define linkonce_odr hidden noundef zeroext i1 @_ZN4llvm8isa_implINS_8ConstantENS_5ValueEvE4doitERKS2_(ptr noundef nonnull align 8 dereferenceable(24) %0) #1 comdat align 2 {
  %2 = alloca ptr, align 8
  store ptr %0, ptr %2, align 8
  %3 = load ptr, ptr %2, align 8
  %4 = call noundef i32 @_ZNK4llvm5Value10getValueIDEv(ptr noundef nonnull align 8 dereferenceable(24) %3)
  %5 = icmp ule i32 %4, 21
  ret i1 %5
}

; Function Attrs: mustprogress nounwind uwtable
define linkonce_odr hidden noundef zeroext i1 @_ZN4llvm11isa_impl_clINS_8ConstantEPKNS_5ValueEE4doitES4_(ptr noundef %0) #1 comdat align 2 {
  %2 = alloca ptr, align 8
  store ptr %0, ptr %2, align 8
  %3 = load ptr, ptr %2, align 8
  %4 = call noundef zeroext i1 @_ZN4llvm8isa_implINS_8ConstantENS_5ValueEvE4doitERKS2_(ptr noundef nonnull align 8 dereferenceable(24) %3)
  ret i1 %4
}

; Function Attrs: mustprogress nounwind uwtable
define linkonce_odr hidden noundef zeroext i1 @_ZN4llvm13isa_impl_wrapINS_8ConstantEPKNS_5ValueES4_E4doitERKS4_(ptr noundef nonnull align 8 dereferenceable(8) %0) #1 comdat align 2 {
  %2 = alloca ptr, align 8
  store ptr %0, ptr %2, align 8
  %3 = load ptr, ptr %2, align 8
  %4 = load ptr, ptr %3, align 8
  %5 = call noundef zeroext i1 @_ZN4llvm11isa_impl_clINS_8ConstantEPKNS_5ValueEE4doitES4_(ptr noundef %4)
  ret i1 %5
}

; Function Attrs: mustprogress nounwind uwtable
define linkonce_odr hidden noundef zeroext i1 @_ZN4llvm13isa_impl_wrapINS_8ConstantEKPKNS_5ValueES4_E4doitERS5_(ptr noundef nonnull align 8 dereferenceable(8) %0) #1 comdat align 2 {
  %2 = alloca ptr, align 8
  %3 = alloca ptr, align 8
  store ptr %0, ptr %2, align 8
  %4 = load ptr, ptr %2, align 8
  %5 = call noundef ptr @_ZN4llvm13simplify_typeIKPKNS_5ValueEE18getSimplifiedValueERS4_(ptr noundef nonnull align 8 dereferenceable(8) %4)
  store ptr %5, ptr %3, align 8
  %6 = call noundef zeroext i1 @_ZN4llvm13isa_impl_wrapINS_8ConstantEPKNS_5ValueES4_E4doitERKS4_(ptr noundef nonnull align 8 dereferenceable(8) %3)
  ret i1 %6
}

; Function Attrs: mustprogress nounwind uwtable
define linkonce_odr hidden noundef nonnull align 8 dereferenceable(8) ptr @_ZN4llvm13simplify_typeIPKNS_5ValueEE18getSimplifiedValueERS3_(ptr noundef nonnull align 8 dereferenceable(8) %0) #1 comdat align 2 {
  %2 = alloca ptr, align 8
  store ptr %0, ptr %2, align 8
  %3 = load ptr, ptr %2, align 8
  ret ptr %3
}

; Function Attrs: mustprogress nounwind uwtable
define linkonce_odr hidden noundef ptr @_ZN4llvm16cast_convert_valINS_8ConstantEPKNS_5ValueES4_E4doitES4_(ptr noundef %0) #1 comdat align 2 {
  %2 = alloca ptr, align 8
  store ptr %0, ptr %2, align 8
  %3 = load ptr, ptr %2, align 8
  ret ptr %3
}

; Function Attrs: mustprogress nounwind uwtable
define linkonce_odr hidden noundef zeroext i1 @_ZN4llvm14CastIsPossibleINS_8ConstantEPKNS_5ValueEvE10isPossibleERKS4_(ptr noundef nonnull align 8 dereferenceable(8) %0) #1 comdat align 2 {
  %2 = alloca ptr, align 8
  store ptr %0, ptr %2, align 8
  %3 = load ptr, ptr %2, align 8
  %4 = call noundef zeroext i1 @_ZN4llvm13isa_impl_wrapINS_8ConstantEKPKNS_5ValueES4_E4doitERS5_(ptr noundef nonnull align 8 dereferenceable(8) %3)
  ret i1 %4
}

; Function Attrs: mustprogress nounwind uwtable
define linkonce_odr hidden noundef ptr @_ZN4llvm13simplify_typeIKPKNS_5ValueEE18getSimplifiedValueERS4_(ptr noundef nonnull align 8 dereferenceable(8) %0) #1 comdat align 2 {
  %2 = alloca ptr, align 8
  store ptr %0, ptr %2, align 8
  %3 = load ptr, ptr %2, align 8
  %4 = call noundef nonnull align 8 dereferenceable(8) ptr @_ZN4llvm13simplify_typeIPKNS_5ValueEE18getSimplifiedValueERS3_(ptr noundef nonnull align 8 dereferenceable(8) %3)
  %5 = load ptr, ptr %4, align 8
  ret ptr %5
}

; Function Attrs: mustprogress nounwind uwtable
define linkonce_odr hidden noundef ptr @_ZN4llvm8CastInfoINS_8ConstantEPKNS_5ValueEvE6doCastERKS4_(ptr noundef nonnull align 8 dereferenceable(8) %0) #1 comdat align 2 {
  %2 = alloca ptr, align 8
  store ptr %0, ptr %2, align 8
  %3 = load ptr, ptr %2, align 8
  %4 = load ptr, ptr %3, align 8
  %5 = call noundef ptr @_ZN4llvm16cast_convert_valINS_8ConstantEPKNS_5ValueES4_E4doitES4_(ptr noundef %4)
  ret ptr %5
}

; Function Attrs: mustprogress nounwind uwtable
define linkonce_odr hidden noundef zeroext i1 @_ZN4llvm8CastInfoINS_8ConstantEKPKNS_5ValueEvE10isPossibleERS5_(ptr noundef nonnull align 8 dereferenceable(8) %0) #1 comdat align 2 {
  %2 = alloca ptr, align 8
  %3 = alloca ptr, align 8
  store ptr %0, ptr %2, align 8
  %4 = load ptr, ptr %2, align 8
  %5 = call noundef ptr @_ZN4llvm13simplify_typeIKPKNS_5ValueEE18getSimplifiedValueERS4_(ptr noundef nonnull align 8 dereferenceable(8) %4)
  store ptr %5, ptr %3, align 8
  %6 = call noundef zeroext i1 @_ZN4llvm14CastIsPossibleINS_8ConstantEPKNS_5ValueEvE10isPossibleERKS4_(ptr noundef nonnull align 8 dereferenceable(8) %3)
  ret i1 %6
}

; Function Attrs: mustprogress nounwind uwtable
define linkonce_odr hidden noundef ptr @_ZN4llvm4castINS_8ConstantEKNS_5ValueEEEDcPT0_(ptr noundef %0) #1 comdat {
  %2 = alloca ptr, align 8
  store ptr %0, ptr %2, align 8
  %3 = call noundef ptr @_ZN4llvm8CastInfoINS_8ConstantEPKNS_5ValueEvE6doCastERKS4_(ptr noundef nonnull align 8 dereferenceable(8) %2)
  ret ptr %3
}

; Function Attrs: mustprogress nounwind uwtable
define linkonce_odr hidden noundef zeroext i1 @_ZN4llvm3isaINS_8ConstantEPKNS_5ValueEEEbRKT0_(ptr noundef nonnull align 8 dereferenceable(8) %0) #1 comdat {
  %2 = alloca ptr, align 8
  store ptr %0, ptr %2, align 8
  %3 = load ptr, ptr %2, align 8
  %4 = call noundef zeroext i1 @_ZN4llvm8CastInfoINS_8ConstantEKPKNS_5ValueEvE10isPossibleERS5_(ptr noundef nonnull align 8 dereferenceable(8) %3)
  ret i1 %4
}

; Function Attrs: mustprogress nounwind uwtable
define linkonce_odr hidden noundef nonnull align 8 dereferenceable(89) ptr @_ZNKSt6vectorIN4llvm8SwitchCG9CaseBlockESaIS2_EEixEm(ptr noundef nonnull align 8 dereferenceable(24) %0, i64 noundef %1) #1 comdat align 2 {
  %3 = alloca ptr, align 8
  %4 = alloca i64, align 8
  store ptr %0, ptr %3, align 8
  store i64 %1, ptr %4, align 8
  %5 = load ptr, ptr %3, align 8
  %6 = getelementptr inbounds nuw %"struct.std::_Vector_base.396", ptr %5, i32 0, i32 0
  %7 = getelementptr inbounds nuw %"struct.std::_Vector_base<llvm::SwitchCG::CaseBlock, std::allocator<llvm::SwitchCG::CaseBlock>>::_Vector_impl_data", ptr %6, i32 0, i32 0
  %8 = load ptr, ptr %7, align 8
  %9 = load i64, ptr %4, align 8
  %10 = getelementptr inbounds %"struct.llvm::SwitchCG::CaseBlock", ptr %8, i64 %9
  ret ptr %10
}

; Function Attrs: mustprogress nounwind uwtable
define linkonce_odr hidden noundef i64 @_ZNKSt6vectorIN4llvm8SwitchCG9CaseBlockESaIS2_EE4sizeEv(ptr noundef nonnull align 8 dereferenceable(24) %0) #1 comdat align 2 {
  %2 = alloca ptr, align 8
  store ptr %0, ptr %2, align 8
  %3 = load ptr, ptr %2, align 8
  %4 = getelementptr inbounds nuw %"struct.std::_Vector_base.396", ptr %3, i32 0, i32 0
  %5 = getelementptr inbounds nuw %"struct.std::_Vector_base<llvm::SwitchCG::CaseBlock, std::allocator<llvm::SwitchCG::CaseBlock>>::_Vector_impl_data", ptr %4, i32 0, i32 1
  %6 = load ptr, ptr %5, align 8
  %7 = getelementptr inbounds nuw %"struct.std::_Vector_base.396", ptr %3, i32 0, i32 0
  %8 = getelementptr inbounds nuw %"struct.std::_Vector_base<llvm::SwitchCG::CaseBlock, std::allocator<llvm::SwitchCG::CaseBlock>>::_Vector_impl_data", ptr %7, i32 0, i32 0
  %9 = load ptr, ptr %8, align 8
  %10 = ptrtoint ptr %6 to i64
  %11 = ptrtoint ptr %9 to i64
  %12 = sub i64 %10, %11
  %13 = sdiv exact i64 %12, 96
  ret i64 %13
}

; Function Attrs: mustprogress nounwind uwtable
define dso_local noundef zeroext i1 @_ZN4llvm19SelectionDAGBuilder20ShouldEmitAsBranchesERKSt6vectorINS_8SwitchCG9CaseBlockESaIS3_EE(ptr noundef nonnull align 8 dereferenceable(984) %0, ptr noundef nonnull align 8 dereferenceable(24) %1) #1 align 2 {
  %3 = alloca i1, align 1
  %4 = alloca ptr, align 8
  %5 = alloca ptr, align 8
  store ptr %0, ptr %4, align 8
  store ptr %1, ptr %5, align 8
  %6 = load ptr, ptr %5, align 8
  %7 = call noundef i64 @_ZNKSt6vectorIN4llvm8SwitchCG9CaseBlockESaIS2_EE4sizeEv(ptr noundef nonnull align 8 dereferenceable(24) %6) #2
  %8 = icmp ne i64 %7, 2
  br i1 %8, label %9, label %10

9:                                                ; preds = %2
  store i1 true, ptr %3, align 1
  br label %119

10:                                               ; preds = %2
  %11 = load ptr, ptr %5, align 8
  %12 = call noundef nonnull align 8 dereferenceable(89) ptr @_ZNKSt6vectorIN4llvm8SwitchCG9CaseBlockESaIS2_EEixEm(ptr noundef nonnull align 8 dereferenceable(24) %11, i64 noundef 0) #2
  %13 = getelementptr inbounds nuw %"struct.llvm::SwitchCG::CaseBlock", ptr %12, i32 0, i32 1
  %14 = load ptr, ptr %13, align 8
  %15 = load ptr, ptr %5, align 8
  %16 = call noundef nonnull align 8 dereferenceable(89) ptr @_ZNKSt6vectorIN4llvm8SwitchCG9CaseBlockESaIS2_EEixEm(ptr noundef nonnull align 8 dereferenceable(24) %15, i64 noundef 1) #2
  %17 = getelementptr inbounds nuw %"struct.llvm::SwitchCG::CaseBlock", ptr %16, i32 0, i32 1
  %18 = load ptr, ptr %17, align 8
  %19 = icmp eq ptr %14, %18
  br i1 %19, label %20, label %30

20:                                               ; preds = %10
  %21 = load ptr, ptr %5, align 8
  %22 = call noundef nonnull align 8 dereferenceable(89) ptr @_ZNKSt6vectorIN4llvm8SwitchCG9CaseBlockESaIS2_EEixEm(ptr noundef nonnull align 8 dereferenceable(24) %21, i64 noundef 0) #2
  %23 = getelementptr inbounds nuw %"struct.llvm::SwitchCG::CaseBlock", ptr %22, i32 0, i32 3
  %24 = load ptr, ptr %23, align 8
  %25 = load ptr, ptr %5, align 8
  %26 = call noundef nonnull align 8 dereferenceable(89) ptr @_ZNKSt6vectorIN4llvm8SwitchCG9CaseBlockESaIS2_EEixEm(ptr noundef nonnull align 8 dereferenceable(24) %25, i64 noundef 1) #2
  %27 = getelementptr inbounds nuw %"struct.llvm::SwitchCG::CaseBlock", ptr %26, i32 0, i32 3
  %28 = load ptr, ptr %27, align 8
  %29 = icmp eq ptr %24, %28
  br i1 %29, label %50, label %30

30:                                               ; preds = %20, %10
  %31 = load ptr, ptr %5, align 8
  %32 = call noundef nonnull align 8 dereferenceable(89) ptr @_ZNKSt6vectorIN4llvm8SwitchCG9CaseBlockESaIS2_EEixEm(ptr noundef nonnull align 8 dereferenceable(24) %31, i64 noundef 0) #2
  %33 = getelementptr inbounds nuw %"struct.llvm::SwitchCG::CaseBlock", ptr %32, i32 0, i32 3
  %34 = load ptr, ptr %33, align 8
  %35 = load ptr, ptr %5, align 8
  %36 = call noundef nonnull align 8 dereferenceable(89) ptr @_ZNKSt6vectorIN4llvm8SwitchCG9CaseBlockESaIS2_EEixEm(ptr noundef nonnull align 8 dereferenceable(24) %35, i64 noundef 1) #2
  %37 = getelementptr inbounds nuw %"struct.llvm::SwitchCG::CaseBlock", ptr %36, i32 0, i32 1
  %38 = load ptr, ptr %37, align 8
  %39 = icmp eq ptr %34, %38
  br i1 %39, label %40, label %51

40:                                               ; preds = %30
  %41 = load ptr, ptr %5, align 8
  %42 = call noundef nonnull align 8 dereferenceable(89) ptr @_ZNKSt6vectorIN4llvm8SwitchCG9CaseBlockESaIS2_EEixEm(ptr noundef nonnull align 8 dereferenceable(24) %41, i64 noundef 0) #2
  %43 = getelementptr inbounds nuw %"struct.llvm::SwitchCG::CaseBlock", ptr %42, i32 0, i32 1
  %44 = load ptr, ptr %43, align 8
  %45 = load ptr, ptr %5, align 8
  %46 = call noundef nonnull align 8 dereferenceable(89) ptr @_ZNKSt6vectorIN4llvm8SwitchCG9CaseBlockESaIS2_EEixEm(ptr noundef nonnull align 8 dereferenceable(24) %45, i64 noundef 1) #2
  %47 = getelementptr inbounds nuw %"struct.llvm::SwitchCG::CaseBlock", ptr %46, i32 0, i32 3
  %48 = load ptr, ptr %47, align 8
  %49 = icmp eq ptr %44, %48
  br i1 %49, label %50, label %51

50:                                               ; preds = %40, %20
  store i1 false, ptr %3, align 1
  br label %119

51:                                               ; preds = %40, %30
  %52 = load ptr, ptr %5, align 8
  %53 = call noundef nonnull align 8 dereferenceable(89) ptr @_ZNKSt6vectorIN4llvm8SwitchCG9CaseBlockESaIS2_EEixEm(ptr noundef nonnull align 8 dereferenceable(24) %52, i64 noundef 0) #2
  %54 = getelementptr inbounds nuw %"struct.llvm::SwitchCG::CaseBlock", ptr %53, i32 0, i32 3
  %55 = load ptr, ptr %54, align 8
  %56 = load ptr, ptr %5, align 8
  %57 = call noundef nonnull align 8 dereferenceable(89) ptr @_ZNKSt6vectorIN4llvm8SwitchCG9CaseBlockESaIS2_EEixEm(ptr noundef nonnull align 8 dereferenceable(24) %56, i64 noundef 1) #2
  %58 = getelementptr inbounds nuw %"struct.llvm::SwitchCG::CaseBlock", ptr %57, i32 0, i32 3
  %59 = load ptr, ptr %58, align 8
  %60 = icmp eq ptr %55, %59
  br i1 %60, label %61, label %118

61:                                               ; preds = %51
  %62 = load ptr, ptr %5, align 8
  %63 = call noundef nonnull align 8 dereferenceable(89) ptr @_ZNKSt6vectorIN4llvm8SwitchCG9CaseBlockESaIS2_EEixEm(ptr noundef nonnull align 8 dereferenceable(24) %62, i64 noundef 0) #2
  %64 = getelementptr inbounds nuw %"struct.llvm::SwitchCG::CaseBlock", ptr %63, i32 0, i32 0
  %65 = load i32, ptr %64, align 8
  %66 = load ptr, ptr %5, align 8
  %67 = call noundef nonnull align 8 dereferenceable(89) ptr @_ZNKSt6vectorIN4llvm8SwitchCG9CaseBlockESaIS2_EEixEm(ptr noundef nonnull align 8 dereferenceable(24) %66, i64 noundef 1) #2
  %68 = getelementptr inbounds nuw %"struct.llvm::SwitchCG::CaseBlock", ptr %67, i32 0, i32 0
  %69 = load i32, ptr %68, align 8
  %70 = icmp eq i32 %65, %69
  br i1 %70, label %71, label %118

71:                                               ; preds = %61
  %72 = load ptr, ptr %5, align 8
  %73 = call noundef nonnull align 8 dereferenceable(89) ptr @_ZNKSt6vectorIN4llvm8SwitchCG9CaseBlockESaIS2_EEixEm(ptr noundef nonnull align 8 dereferenceable(24) %72, i64 noundef 0) #2
  %74 = getelementptr inbounds nuw %"struct.llvm::SwitchCG::CaseBlock", ptr %73, i32 0, i32 3
  %75 = call noundef zeroext i1 @_ZN4llvm3isaINS_8ConstantEPKNS_5ValueEEEbRKT0_(ptr noundef nonnull align 8 dereferenceable(8) %74)
  br i1 %75, label %76, label %118

76:                                               ; preds = %71
  %77 = load ptr, ptr %5, align 8
  %78 = call noundef nonnull align 8 dereferenceable(89) ptr @_ZNKSt6vectorIN4llvm8SwitchCG9CaseBlockESaIS2_EEixEm(ptr noundef nonnull align 8 dereferenceable(24) %77, i64 noundef 0) #2
  %79 = getelementptr inbounds nuw %"struct.llvm::SwitchCG::CaseBlock", ptr %78, i32 0, i32 3
  %80 = load ptr, ptr %79, align 8
  %81 = call noundef ptr @_ZN4llvm4castINS_8ConstantEKNS_5ValueEEEDcPT0_(ptr noundef %80)
  %82 = call noundef zeroext i1 @_ZNK4llvm8Constant11isNullValueEv(ptr noundef nonnull align 8 dereferenceable(24) %81)
  br i1 %82, label %83, label %118

83:                                               ; preds = %76
  %84 = load ptr, ptr %5, align 8
  %85 = call noundef nonnull align 8 dereferenceable(89) ptr @_ZNKSt6vectorIN4llvm8SwitchCG9CaseBlockESaIS2_EEixEm(ptr noundef nonnull align 8 dereferenceable(24) %84, i64 noundef 0) #2
  %86 = getelementptr inbounds nuw %"struct.llvm::SwitchCG::CaseBlock", ptr %85, i32 0, i32 0
  %87 = load i32, ptr %86, align 8
  %88 = icmp eq i32 %87, 17
  br i1 %88, label %89, label %100

89:                                               ; preds = %83
  %90 = load ptr, ptr %5, align 8
  %91 = call noundef nonnull align 8 dereferenceable(89) ptr @_ZNKSt6vectorIN4llvm8SwitchCG9CaseBlockESaIS2_EEixEm(ptr noundef nonnull align 8 dereferenceable(24) %90, i64 noundef 0) #2
  %92 = getelementptr inbounds nuw %"struct.llvm::SwitchCG::CaseBlock", ptr %91, i32 0, i32 4
  %93 = load ptr, ptr %92, align 8
  %94 = load ptr, ptr %5, align 8
  %95 = call noundef nonnull align 8 dereferenceable(89) ptr @_ZNKSt6vectorIN4llvm8SwitchCG9CaseBlockESaIS2_EEixEm(ptr noundef nonnull align 8 dereferenceable(24) %94, i64 noundef 1) #2
  %96 = getelementptr inbounds nuw %"struct.llvm::SwitchCG::CaseBlock", ptr %95, i32 0, i32 6
  %97 = load ptr, ptr %96, align 8
  %98 = icmp eq ptr %93, %97
  br i1 %98, label %99, label %100

99:                                               ; preds = %89
  store i1 false, ptr %3, align 1
  br label %119

100:                                              ; preds = %89, %83
  %101 = load ptr, ptr %5, align 8
  %102 = call noundef nonnull align 8 dereferenceable(89) ptr @_ZNKSt6vectorIN4llvm8SwitchCG9CaseBlockESaIS2_EEixEm(ptr noundef nonnull align 8 dereferenceable(24) %101, i64 noundef 0) #2
  %103 = getelementptr inbounds nuw %"struct.llvm::SwitchCG::CaseBlock", ptr %102, i32 0, i32 0
  %104 = load i32, ptr %103, align 8
  %105 = icmp eq i32 %104, 22
  br i1 %105, label %106, label %117

106:                                              ; preds = %100
  %107 = load ptr, ptr %5, align 8
  %108 = call noundef nonnull align 8 dereferenceable(89) ptr @_ZNKSt6vectorIN4llvm8SwitchCG9CaseBlockESaIS2_EEixEm(ptr noundef nonnull align 8 dereferenceable(24) %107, i64 noundef 0) #2
  %109 = getelementptr inbounds nuw %"struct.llvm::SwitchCG::CaseBlock", ptr %108, i32 0, i32 5
  %110 = load ptr, ptr %109, align 8
  %111 = load ptr, ptr %5, align 8
  %112 = call noundef nonnull align 8 dereferenceable(89) ptr @_ZNKSt6vectorIN4llvm8SwitchCG9CaseBlockESaIS2_EEixEm(ptr noundef nonnull align 8 dereferenceable(24) %111, i64 noundef 1) #2
  %113 = getelementptr inbounds nuw %"struct.llvm::SwitchCG::CaseBlock", ptr %112, i32 0, i32 6
  %114 = load ptr, ptr %113, align 8
  %115 = icmp eq ptr %110, %114
  br i1 %115, label %116, label %117

116:                                              ; preds = %106
  store i1 false, ptr %3, align 1
  br label %119

117:                                              ; preds = %106, %100
  br label %118

118:                                              ; preds = %117, %76, %71, %61, %51
  store i1 true, ptr %3, align 1
  br label %119

119:                                              ; preds = %118, %116, %99, %50, %9
  %120 = load i1, ptr %3, align 1
  ret i1 %120
}